target datalayout = "e-m:e-p270:32:32-p271:32:32-p272:64:64-i64:64-i128:128-f80:128-n8:16:32:64-S128"
target triple = "x86_64-pc-linux-gnu"

%struct.reassembly_table = type { ptr, ptr, ptr, ptr, ptr }
%struct.reassembly_table_functions = type { ptr, ptr, ptr, ptr, ptr, ptr }

@proto_register_smb_direct.ett = internal global [5 x ptr] [ptr @ett_smb_direct, ptr @ett_smb_direct_hdr, ptr @ett_smb_direct_flags, ptr @ett_smb_direct_fragment, ptr @ett_smb_direct_fragments], align 16
@.str.59 = private unnamed_addr constant [32 x i8] c"SMB-Direct (SMB RDMA Transport)\00", align 1
@.str.60 = private unnamed_addr constant [10 x i8] c"SMBDirect\00", align 1
@.str.61 = private unnamed_addr constant [11 x i8] c"smb_direct\00", align 1
@proto_smb_direct = internal global i32 0, align 4
@smb_direct_handle = internal global ptr null, align 8
@.str.62 = private unnamed_addr constant [19 x i8] c"SMB-Direct payload\00", align 1
@smb_direct_heur_subdissector_list = internal global ptr null, align 8
@.str.63 = private unnamed_addr constant [22 x i8] c"reassemble_smb_direct\00", align 1
@.str.64 = private unnamed_addr constant [32 x i8] c"Reassemble SMB Direct fragments\00", align 1
@.str.65 = private unnamed_addr constant [71 x i8] c"Whether the SMB Direct dissector should reassemble fragmented payloads\00", align 1
@smb_direct_reassemble = internal global i8 1, align 1
@smb_direct_reassembly_table = internal global %struct.reassembly_table zeroinitializer, align 8
@addresses_ports_reassembly_table_functions = external constant %struct.reassembly_table_functions, align 8
@.str.66 = private unnamed_addr constant [33 x i8] c"reassemble_smb_direct_infiniband\00", align 1
@.str.67 = private unnamed_addr constant [52 x i8] c"Reassemble Infiniband Send fragments for SMB Direct\00", align 1
@.str.68 = private unnamed_addr constant [77 x i8] c"Whether the SMB Direct dissector should reassemble Infiniband Send fragments\00", align 1
@smb_direct_infiniband_reassemble = internal global i8 1, align 1

; Function Attrs: null_pointer_is_valid sspstrong uwtable
define hidden void @proto_register_smb_direct() #0 {
  %1 = alloca ptr, align 8
  call void @llvm.lifetime.start.p0(i64 8, ptr %1) #3
  %2 = call i32 @proto_register_protocol(ptr noundef @.str.59, ptr noundef @.str.60, ptr noundef @.str.61)
  store i32 %2, ptr @proto_smb_direct, align 4
  call void @proto_register_subtree_array(ptr noundef @proto_register_smb_direct.ett, i32 noundef 5)
  %3 = load i32, ptr @proto_smb_direct, align 4
  call void @proto_register_field_array(i32 noundef %3, ptr noundef @proto_register_smb_direct.hf, i32 noundef 29)
  %4 = load i32, ptr @proto_smb_direct, align 4
  %5 = call ptr @register_dissector(ptr noundef @.str.61, ptr noundef @dissect_smb_direct_infiniband, i32 noundef %4)
  store ptr %5, ptr @smb_direct_handle, align 8
  %6 = load i32, ptr @proto_smb_direct, align 4
  %7 = call ptr @register_heur_dissector_list_with_description(ptr noundef @.str.61, ptr noundef @.str.62, i32 noundef %6)
  store ptr %7, ptr @smb_direct_heur_subdissector_list, align 8
  %8 = load i32, ptr @proto_smb_direct, align 4
  %9 = call ptr @prefs_register_protocol(i32 noundef %8, ptr noundef null)
  store ptr %9, ptr %1, align 8
  %10 = load ptr, ptr %1, align 8
  call void @prefs_register_bool_preference(ptr noundef %10, ptr noundef @.str.63, ptr noundef @.str.64, ptr noundef @.str.65, ptr noundef @smb_direct_reassemble)
  call void @reassembly_table_register(ptr noundef @smb_direct_reassembly_table, ptr noundef @addresses_ports_reassembly_table_functions)
  %11 = load ptr, ptr %1, align 8
  call void @prefs_register_bool_preference(ptr noundef %11, ptr noundef @.str.66, ptr noundef @.str.67, ptr noundef @.str.68, ptr noundef @smb_direct_infiniband_reassemble)
  call void @llvm.lifetime.end.p0(i64 8, ptr %1) #3
  ret void
}