; Function Attrs: null_pointer_is_valid sspstrong uwtable
define hidden void @proto_register_smb_direct() local_unnamed_addr #0 {
  %1 = tail call i32 @proto_register_protocol(ptr noundef nonnull @.str.59, ptr noundef nonnull @.str.60, ptr noundef nonnull @.str.61)
  store i32 %1, ptr @proto_smb_direct, align 4
  tail call void @proto_register_subtree_array(ptr noundef nonnull @proto_register_smb_direct.ett, i32 noundef 5)
  %2 = load i32, ptr @proto_smb_direct, align 4
  tail call void @proto_register_field_array(i32 noundef %2, ptr noundef nonnull @proto_register_smb_direct.hf, i32 noundef 29)
  %3 = load i32, ptr @proto_smb_direct, align 4
  %4 = tail call ptr @register_dissector(ptr noundef nonnull @.str.61, ptr noundef nonnull @dissect_smb_direct_infiniband, i32 noundef %3)
  store ptr %4, ptr @smb_direct_handle, align 8
  %5 = load i32, ptr @proto_smb_direct, align 4
  %6 = tail call ptr @register_heur_dissector_list_with_description(ptr noundef nonnull @.str.61, ptr noundef nonnull @.str.62, i32 noundef %5)
  store ptr %6, ptr @smb_direct_heur_subdissector_list, align 8
  %7 = load i32, ptr @proto_smb_direct, align 4
  %8 = tail call ptr @prefs_register_protocol(i32 noundef %7, ptr noundef null)
  tail call void @prefs_register_bool_preference(ptr noundef %8, ptr noundef nonnull @.str.63, ptr noundef nonnull @.str.64, ptr noundef nonnull @.str.65, ptr noundef nonnull @smb_direct_reassemble)
  tail call void @reassembly_table_register(ptr noundef nonnull @smb_direct_reassembly_table, ptr noundef nonnull @addresses_ports_reassembly_table_functions)
  tail call void @prefs_register_bool_preference(ptr noundef %8, ptr noundef nonnull @.str.66, ptr noundef nonnull @.str.67, ptr noundef nonnull @.str.68, ptr noundef nonnull @smb_direct_infiniband_reassemble)
  ret void
}